ARM GAS  C:\Users\UNIPRO~1\AppData\Local\Temp\ccAKWlaQ.s 			page 1


   1              		.syntax unified
   2              		.cpu cortex-m3
   3              		.fpu softvfp
   4              		.eabi_attribute 20, 1
   5              		.eabi_attribute 21, 1
   6              		.eabi_attribute 23, 3
   7              		.eabi_attribute 24, 1
   8              		.eabi_attribute 25, 1
   9              		.eabi_attribute 26, 1
  10              		.eabi_attribute 30, 1
  11              		.eabi_attribute 34, 1
  12              		.eabi_attribute 18, 4
  13              		.thumb
  14              		.syntax unified
  15              		.file	"main.c"
  16              		.text
  17              	.Ltext0:
  18              		.cfi_sections	.debug_frame
  19              		.section	.text.max,"ax",%progbits
  20              		.align	2
  21              		.global	max
  22              		.thumb
  23              		.thumb_func
  24              		.type	max, %function
  25              	max:
  26              	.LFB64:
  27              		.file 1 "main.c"
   1:main.c        **** /* ========================================
   2:main.c        ****  *
   3:main.c        ****  * Copyright YOUR COMPANY, THE YEAR
   4:main.c        ****  * All Rights Reserved
   5:main.c        ****  * UNPUBLISHED, LICENSED SOFTWARE.
   6:main.c        ****  *
   7:main.c        ****  * CONFIDENTIAL AND PROPRIETARY INFORMATION
   8:main.c        ****  * WHICH IS THE PROPERTY OF your company.
   9:main.c        ****  *
  10:main.c        ****  * ========================================
  11:main.c        **** */
  12:main.c        **** #include "project.h"
  13:main.c        **** #include "stdio.h"
  14:main.c        **** 
  15:main.c        **** #define TRANSMIT_BUFFER_SIZE 32
  16:main.c        **** #define NUMBER_OF_SENSORS_MASTER 6 
  17:main.c        **** #define NUM_PERIPH_BOARDS 1//NUMBER OF SENSORS ASSOCIATED WITH MASTER
  18:main.c        **** //#define NUMBER_OF_SENSORS 4 //TOTAL NUMBER OF ACTIVE SENSORS ACROSS ALL PERIPHERALS
  19:main.c        **** //#define NUM_BOARDS 2 //TOTAL NUMBER OF BOARDS (MASTER + PERIPHERALS) 
  20:main.c        **** #define NUMBER_OF_SENSE_PARAM NUMBER_OF_SENSORS_MASTER+(2*NUM_PERIPH_BOARDS)
  21:main.c        **** 
  22:main.c        **** #define NUMBER_OF_CAN_PARAM 3 //MAX, MIN, AVG
  23:main.c        **** 
  24:main.c        **** uint16 RX_DATA_P1[NUMBER_OF_CAN_PARAM];
  25:main.c        **** uint16 TX_DATA[NUMBER_OF_CAN_PARAM];
  26:main.c        **** uint8 TX_DATA8[NUMBER_OF_CAN_PARAM];
  27:main.c        **** //uint32 output;
  28:main.c        **** 
  29:main.c        **** uint16 max(uint16 arr[], int n)
  30:main.c        **** {
ARM GAS  C:\Users\UNIPRO~1\AppData\Local\Temp\ccAKWlaQ.s 			page 2


  28              		.loc 1 30 0
  29              		.cfi_startproc
  30              		@ args = 0, pretend = 0, frame = 0
  31              		@ frame_needed = 0, uses_anonymous_args = 0
  32              		@ link register save eliminated.
  33              	.LVL0:
  34 0000 10B4     		push	{r4}
  35              		.cfi_def_cfa_offset 4
  36              		.cfi_offset 4, -4
  37 0002 0446     		mov	r4, r0
  38              	.LVL1:
  31:main.c        ****     int i;
  32:main.c        ****     int max = 0;
  39              		.loc 1 32 0
  40 0004 0020     		movs	r0, #0
  41              	.LVL2:
  33:main.c        ****     
  34:main.c        ****     for (i = 0; i < n; i++)
  42              		.loc 1 34 0
  43 0006 0346     		mov	r3, r0
  44 0008 05E0     		b	.L2
  45              	.LVL3:
  46              	.L4:
  35:main.c        ****         if (arr[i] > max)
  47              		.loc 1 35 0
  48 000a 34F81320 		ldrh	r2, [r4, r3, lsl #1]
  49 000e 9042     		cmp	r0, r2
  50 0010 00DA     		bge	.L3
  36:main.c        ****         max = arr[i];
  51              		.loc 1 36 0
  52 0012 1046     		mov	r0, r2
  53              	.LVL4:
  54              	.L3:
  34:main.c        ****         if (arr[i] > max)
  55              		.loc 1 34 0 discriminator 2
  56 0014 0133     		adds	r3, r3, #1
  57              	.LVL5:
  58              	.L2:
  34:main.c        ****         if (arr[i] > max)
  59              		.loc 1 34 0 is_stmt 0 discriminator 1
  60 0016 8B42     		cmp	r3, r1
  61 0018 F7DB     		blt	.L4
  37:main.c        ****         
  38:main.c        ****      return max;
  39:main.c        **** }
  62              		.loc 1 39 0 is_stmt 1
  63 001a 10BC     		pop	{r4}
  64              		.cfi_restore 4
  65              		.cfi_def_cfa_offset 0
  66              	.LVL6:
  67 001c 7047     		bx	lr
  68              		.cfi_endproc
  69              	.LFE64:
  70              		.size	max, .-max
  71 001e 00BF     		.section	.text.min,"ax",%progbits
  72              		.align	2
  73              		.global	min
ARM GAS  C:\Users\UNIPRO~1\AppData\Local\Temp\ccAKWlaQ.s 			page 3


  74              		.thumb
  75              		.thumb_func
  76              		.type	min, %function
  77              	min:
  78              	.LFB65:
  40:main.c        **** 
  41:main.c        **** uint16 min(uint16 arr[], int n, int max)
  42:main.c        **** {
  79              		.loc 1 42 0
  80              		.cfi_startproc
  81              		@ args = 0, pretend = 0, frame = 0
  82              		@ frame_needed = 0, uses_anonymous_args = 0
  83              		@ link register save eliminated.
  84              	.LVL7:
  85 0000 10B4     		push	{r4}
  86              		.cfi_def_cfa_offset 4
  87              		.cfi_offset 4, -4
  88              	.LVL8:
  43:main.c        ****     int i;
  44:main.c        ****     int min = max; //Initialising
  45:main.c        ****     
  46:main.c        ****     for (i = 0; i < n; i++){
  89              		.loc 1 46 0
  90 0002 0023     		movs	r3, #0
  91 0004 06E0     		b	.L8
  92              	.LVL9:
  93              	.L10:
  47:main.c        ****         if ((arr[i] < min) && (arr[i] != 0)){
  94              		.loc 1 47 0
  95 0006 30F81340 		ldrh	r4, [r0, r3, lsl #1]
  96 000a A242     		cmp	r2, r4
  97 000c 01DD     		ble	.L9
  98              		.loc 1 47 0 is_stmt 0 discriminator 1
  99 000e 04B1     		cbz	r4, .L9
  48:main.c        ****             min = arr[i];}
 100              		.loc 1 48 0 is_stmt 1
 101 0010 2246     		mov	r2, r4
 102              	.LVL10:
 103              	.L9:
  46:main.c        ****         if ((arr[i] < min) && (arr[i] != 0)){
 104              		.loc 1 46 0 discriminator 2
 105 0012 0133     		adds	r3, r3, #1
 106              	.LVL11:
 107              	.L8:
  46:main.c        ****         if ((arr[i] < min) && (arr[i] != 0)){
 108              		.loc 1 46 0 is_stmt 0 discriminator 1
 109 0014 8B42     		cmp	r3, r1
 110 0016 F6DB     		blt	.L10
  49:main.c        ****     }
  50:main.c        ****         
  51:main.c        ****      return min;
  52:main.c        **** }
 111              		.loc 1 52 0 is_stmt 1
 112 0018 90B2     		uxth	r0, r2
 113              	.LVL12:
 114 001a 10BC     		pop	{r4}
 115              		.cfi_restore 4
ARM GAS  C:\Users\UNIPRO~1\AppData\Local\Temp\ccAKWlaQ.s 			page 4


 116              		.cfi_def_cfa_offset 0
 117 001c 7047     		bx	lr
 118              		.cfi_endproc
 119              	.LFE65:
 120              		.size	min, .-min
 121 001e 00BF     		.section	.text.avg,"ax",%progbits
 122              		.align	2
 123              		.global	avg
 124              		.thumb
 125              		.thumb_func
 126              		.type	avg, %function
 127              	avg:
 128              	.LFB66:
  53:main.c        **** 
  54:main.c        **** uint16 avg(uint16 arr[], int n, int max)
  55:main.c        **** {
 129              		.loc 1 55 0
 130              		.cfi_startproc
 131              		@ args = 0, pretend = 0, frame = 0
 132              		@ frame_needed = 0, uses_anonymous_args = 0
 133              		@ link register save eliminated.
 134              	.LVL13:
 135 0000 70B4     		push	{r4, r5, r6}
 136              		.cfi_def_cfa_offset 12
 137              		.cfi_offset 4, -12
 138              		.cfi_offset 5, -8
 139              		.cfi_offset 6, -4
 140              	.LVL14:
  56:main.c        ****     int i;
  57:main.c        ****     int sum = max; //Initialising
 141              		.loc 1 57 0
 142 0002 1546     		mov	r5, r2
  58:main.c        ****     int conn_sensors = 0;
 143              		.loc 1 58 0
 144 0004 0026     		movs	r6, #0
  59:main.c        ****     
  60:main.c        ****     for (i = 0; i < n; i++){
 145              		.loc 1 60 0
 146 0006 3346     		mov	r3, r6
 147 0008 05E0     		b	.L14
 148              	.LVL15:
 149              	.L16:
  61:main.c        ****         if (arr[i] != 0){
 150              		.loc 1 61 0
 151 000a 30F81340 		ldrh	r4, [r0, r3, lsl #1]
 152 000e 0CB1     		cbz	r4, .L15
  62:main.c        ****             sum = sum + arr[i];
 153              		.loc 1 62 0
 154 0010 2544     		add	r5, r5, r4
 155              	.LVL16:
  63:main.c        ****             conn_sensors = conn_sensors + 1;
 156              		.loc 1 63 0
 157 0012 0136     		adds	r6, r6, #1
 158              	.LVL17:
 159              	.L15:
  60:main.c        ****         if (arr[i] != 0){
 160              		.loc 1 60 0 discriminator 2
ARM GAS  C:\Users\UNIPRO~1\AppData\Local\Temp\ccAKWlaQ.s 			page 5


 161 0014 0133     		adds	r3, r3, #1
 162              	.LVL18:
 163              	.L14:
  60:main.c        ****         if (arr[i] != 0){
 164              		.loc 1 60 0 is_stmt 0 discriminator 1
 165 0016 8B42     		cmp	r3, r1
 166 0018 F7DB     		blt	.L16
  64:main.c        ****         }
  65:main.c        ****     }
  66:main.c        ****      return ((sum-max)/conn_sensors);
 167              		.loc 1 66 0 is_stmt 1
 168 001a AD1A     		subs	r5, r5, r2
 169              	.LVL19:
 170 001c 95FBF6F0 		sdiv	r0, r5, r6
 171              	.LVL20:
  67:main.c        **** }
 172              		.loc 1 67 0
 173 0020 80B2     		uxth	r0, r0
 174 0022 70BC     		pop	{r4, r5, r6}
 175              		.cfi_restore 6
 176              		.cfi_restore 5
 177              		.cfi_restore 4
 178              		.cfi_def_cfa_offset 0
 179              	.LVL21:
 180 0024 7047     		bx	lr
 181              		.cfi_endproc
 182              	.LFE66:
 183              		.size	avg, .-avg
 184 0026 00BF     		.section	.text.main,"ax",%progbits
 185              		.align	2
 186              		.global	main
 187              		.thumb
 188              		.thumb_func
 189              		.type	main, %function
 190              	main:
 191              	.LFB67:
  68:main.c        **** 
  69:main.c        **** int main(void)
  70:main.c        **** {
 192              		.loc 1 70 0
 193              		.cfi_startproc
 194              		@ args = 0, pretend = 0, frame = 48
 195              		@ frame_needed = 0, uses_anonymous_args = 0
 196 0000 F0B5     		push	{r4, r5, r6, r7, lr}
 197              		.cfi_def_cfa_offset 20
 198              		.cfi_offset 4, -20
 199              		.cfi_offset 5, -16
 200              		.cfi_offset 6, -12
 201              		.cfi_offset 7, -8
 202              		.cfi_offset 14, -4
 203 0002 8DB0     		sub	sp, sp, #52
 204              		.cfi_def_cfa_offset 72
  71:main.c        ****     CyGlobalIntEnable; /* Enable global interrupts. */
 205              		.loc 1 71 0
 206              		.syntax unified
 207              	@ 71 "main.c" 1
 208 0004 62B6     		CPSIE   i
ARM GAS  C:\Users\UNIPRO~1\AppData\Local\Temp\ccAKWlaQ.s 			page 6


 209              	@ 0 "" 2
  72:main.c        ****     char TransmitBuffer[TRANSMIT_BUFFER_SIZE];
  73:main.c        ****     /* Place your initialization/startup code here (e.g. MyInst_Start()) */
  74:main.c        ****     UART_1_Start();
 210              		.loc 1 74 0
 211              		.thumb
 212              		.syntax unified
 213 0006 FFF7FEFF 		bl	UART_1_Start
 214              	.LVL22:
  75:main.c        ****     ADC_DelSig_1_Start();
 215              		.loc 1 75 0
 216 000a FFF7FEFF 		bl	ADC_DelSig_1_Start
 217              	.LVL23:
  76:main.c        ****     AMux_1_Start();
 218              		.loc 1 76 0
 219 000e FFF7FEFF 		bl	AMux_1_Start
 220              	.LVL24:
  77:main.c        ****     CAN_1_Start();
 221              		.loc 1 77 0
 222 0012 FFF7FEFF 		bl	CAN_1_Start
 223              	.LVL25:
  78:main.c        ****     
  79:main.c        ****     ADC_DelSig_1_StartConvert();
 224              		.loc 1 79 0
 225 0016 FFF7FEFF 		bl	ADC_DelSig_1_StartConvert
 226              	.LVL26:
  80:main.c        ****     UART_1_PutString("COM Port Open");
 227              		.loc 1 80 0
 228 001a 5C48     		ldr	r0, .L25
 229 001c FFF7FEFF 		bl	UART_1_PutString
 230              	.LVL27:
 231              	.L23:
 232              	.LBB2:
  81:main.c        ****     
  82:main.c        ****     for(;;)
  83:main.c        ****     {   
  84:main.c        ****         /* Place your application code here. */
  85:main.c        ****         
  86:main.c        ****         uint16 datapin[NUMBER_OF_SENSE_PARAM];
  87:main.c        ****         
  88:main.c        ****         sprintf(TransmitBuffer, "####### NEW SAMPLES #######\r\n");
 233              		.loc 1 88 0
 234 0020 04AC     		add	r4, sp, #16
 235 0022 5B4D     		ldr	r5, .L25+4
 236 0024 0FCD     		ldmia	r5!, {r0, r1, r2, r3}
 237 0026 0FC4     		stmia	r4!, {r0, r1, r2, r3}
 238 0028 95E80F00 		ldmia	r5, {r0, r1, r2, r3}
 239 002c 07C4     		stmia	r4!, {r0, r1, r2}
 240 002e 2380     		strh	r3, [r4]	@ movhi
  89:main.c        ****         UART_1_PutString(TransmitBuffer);
 241              		.loc 1 89 0
 242 0030 04A8     		add	r0, sp, #16
 243 0032 FFF7FEFF 		bl	UART_1_PutString
 244              	.LVL28:
  90:main.c        ****         CyDelay(100);
 245              		.loc 1 90 0
 246 0036 6420     		movs	r0, #100
ARM GAS  C:\Users\UNIPRO~1\AppData\Local\Temp\ccAKWlaQ.s 			page 7


 247 0038 FFF7FEFF 		bl	CyDelay
 248              	.LVL29:
  91:main.c        ****         
  92:main.c        ****         //Get samples from master first
  93:main.c        ****         int i;
  94:main.c        ****         
  95:main.c        ****         for (i = 0; i < NUMBER_OF_SENSORS_MASTER; i++){
 249              		.loc 1 95 0
 250 003c 0024     		movs	r4, #0
 251 003e 2CE0     		b	.L19
 252              	.LVL30:
 253              	.L22:
  96:main.c        ****         AMux_1_Select(i);
 254              		.loc 1 96 0
 255 0040 E0B2     		uxtb	r0, r4
 256 0042 FFF7FEFF 		bl	AMux_1_FastSelect
 257              	.LVL31:
  97:main.c        ****         if(ADC_DelSig_1_IsEndConversion(ADC_DelSig_1_RETURN_STATUS))
 258              		.loc 1 97 0
 259 0046 0120     		movs	r0, #1
 260 0048 FFF7FEFF 		bl	ADC_DelSig_1_IsEndConversion
 261              	.LVL32:
 262 004c 08B3     		cbz	r0, .L20
  98:main.c        ****         {
  99:main.c        ****         //ADC_DelSig_1_SetGain(51);
 100:main.c        ****             datapin[i]=  ADC_DelSig_1_CountsTo_mVolts(ADC_DelSig_1_GetResult16());
 263              		.loc 1 100 0
 264 004e FFF7FEFF 		bl	ADC_DelSig_1_GetResult16
 265              	.LVL33:
 266 0052 FFF7FEFF 		bl	ADC_DelSig_1_CountsTo_mVolts
 267              	.LVL34:
 268 0056 82B2     		uxth	r2, r0
 269 0058 0CAB     		add	r3, sp, #48
 270 005a 03EB4403 		add	r3, r3, r4, lsl #1
 271 005e 23F8302C 		strh	r2, [r3, #-48]	@ movhi
 101:main.c        ****             if (datapin[i] < 100){ //Some tolerance for Grounded Voltage (100mV) for 'Disconnected 
 272              		.loc 1 101 0
 273 0062 632A     		cmp	r2, #99
 274 0064 0ED8     		bhi	.L21
 102:main.c        ****                 datapin[i] = 0;
 275              		.loc 1 102 0
 276 0066 0022     		movs	r2, #0
 277 0068 0CAB     		add	r3, sp, #48
 278 006a 03EB4403 		add	r3, r3, r4, lsl #1
 279 006e 23F8302C 		strh	r2, [r3, #-48]	@ movhi
 103:main.c        ****                 sprintf(TransmitBuffer, "Pin DC\r\n");
 280              		.loc 1 103 0
 281 0072 484A     		ldr	r2, .L25+8
 282 0074 04AB     		add	r3, sp, #16
 283 0076 07CA     		ldmia	r2, {r0, r1, r2}
 284 0078 03C3     		stmia	r3!, {r0, r1}
 285 007a 1A70     		strb	r2, [r3]
 104:main.c        ****                 UART_1_PutString(TransmitBuffer);
 286              		.loc 1 104 0
 287 007c 04A8     		add	r0, sp, #16
 288 007e FFF7FEFF 		bl	UART_1_PutString
 289              	.LVL35:
ARM GAS  C:\Users\UNIPRO~1\AppData\Local\Temp\ccAKWlaQ.s 			page 8


 290 0082 06E0     		b	.L20
 291              	.L21:
 105:main.c        ****             }
 106:main.c        ****             else{   
 107:main.c        ****         //output = ADC_DelSig_1_CountsTo_mVolts(ADC_DelSig_1_GetResult8());
 108:main.c        ****             sprintf(TransmitBuffer, "Sample: %d mV\r\n", datapin[i]);
 292              		.loc 1 108 0
 293 0084 4449     		ldr	r1, .L25+12
 294 0086 04A8     		add	r0, sp, #16
 295 0088 FFF7FEFF 		bl	sprintf
 296              	.LVL36:
 109:main.c        ****             UART_1_PutString(TransmitBuffer);
 297              		.loc 1 109 0
 298 008c 04A8     		add	r0, sp, #16
 299 008e FFF7FEFF 		bl	UART_1_PutString
 300              	.LVL37:
 301              	.L20:
 110:main.c        ****             }
 111:main.c        ****         }
 112:main.c        ****         
 113:main.c        ****         CyDelay(100);
 302              		.loc 1 113 0 discriminator 2
 303 0092 6420     		movs	r0, #100
 304 0094 FFF7FEFF 		bl	CyDelay
 305              	.LVL38:
  95:main.c        ****         AMux_1_Select(i);
 306              		.loc 1 95 0 discriminator 2
 307 0098 0134     		adds	r4, r4, #1
 308              	.LVL39:
 309              	.L19:
  95:main.c        ****         AMux_1_Select(i);
 310              		.loc 1 95 0 is_stmt 0 discriminator 1
 311 009a 052C     		cmp	r4, #5
 312 009c D0DD     		ble	.L22
 114:main.c        ****         }
 115:main.c        ****         
 116:main.c        ****         //Print what you got from the peripherals
 117:main.c        ****         sprintf(TransmitBuffer, "\nPERIPHERAL 1 MAX: %d mV\r\n", RX_DATA_P1[0]);
 313              		.loc 1 117 0 is_stmt 1
 314 009e 3F4E     		ldr	r6, .L25+16
 315 00a0 3288     		ldrh	r2, [r6]
 316 00a2 3F49     		ldr	r1, .L25+20
 317 00a4 04A8     		add	r0, sp, #16
 318 00a6 FFF7FEFF 		bl	sprintf
 319              	.LVL40:
 118:main.c        ****         UART_1_PutString(TransmitBuffer);
 320              		.loc 1 118 0
 321 00aa 04A8     		add	r0, sp, #16
 322 00ac FFF7FEFF 		bl	UART_1_PutString
 323              	.LVL41:
 119:main.c        ****         sprintf(TransmitBuffer, "PERIPHERAL 1 MIN: %d mV\r\n", RX_DATA_P1[1]);
 324              		.loc 1 119 0
 325 00b0 7288     		ldrh	r2, [r6, #2]
 326 00b2 3C49     		ldr	r1, .L25+24
 327 00b4 04A8     		add	r0, sp, #16
 328 00b6 FFF7FEFF 		bl	sprintf
 329              	.LVL42:
ARM GAS  C:\Users\UNIPRO~1\AppData\Local\Temp\ccAKWlaQ.s 			page 9


 120:main.c        ****         UART_1_PutString(TransmitBuffer);
 330              		.loc 1 120 0
 331 00ba 04A8     		add	r0, sp, #16
 332 00bc FFF7FEFF 		bl	UART_1_PutString
 333              	.LVL43:
 121:main.c        ****         sprintf(TransmitBuffer, "PERIPHERAL 1 AVG: %d mV\r\n\n", RX_DATA_P1[2]);
 334              		.loc 1 121 0
 335 00c0 B288     		ldrh	r2, [r6, #4]
 336 00c2 3949     		ldr	r1, .L25+28
 337 00c4 04A8     		add	r0, sp, #16
 338 00c6 FFF7FEFF 		bl	sprintf
 339              	.LVL44:
 122:main.c        ****         UART_1_PutString(TransmitBuffer);
 340              		.loc 1 122 0
 341 00ca 04A8     		add	r0, sp, #16
 342 00cc FFF7FEFF 		bl	UART_1_PutString
 343              	.LVL45:
 123:main.c        ****         
 124:main.c        ****         CyDelay(100);
 344              		.loc 1 124 0
 345 00d0 6420     		movs	r0, #100
 346 00d2 FFF7FEFF 		bl	CyDelay
 347              	.LVL46:
 125:main.c        ****         
 126:main.c        ****         datapin[NUMBER_OF_SENSORS_MASTER] = RX_DATA_P1[0]; //Add Max of Peripheral to datapin array
 348              		.loc 1 126 0
 349 00d6 3388     		ldrh	r3, [r6]
 350 00d8 ADF80C30 		strh	r3, [sp, #12]	@ movhi
 127:main.c        ****         datapin[NUMBER_OF_SENSORS_MASTER+1] = RX_DATA_P1[1]; //Add Min of Peripheral to datapin arr
 351              		.loc 1 127 0
 352 00dc 7388     		ldrh	r3, [r6, #2]
 353 00de ADF80E30 		strh	r3, [sp, #14]	@ movhi
 128:main.c        ****         
 129:main.c        ****         TX_DATA[0] = (max(datapin, NUMBER_OF_SENSE_PARAM)); //Use max function to find max of every
 354              		.loc 1 129 0
 355 00e2 0821     		movs	r1, #8
 356 00e4 6846     		mov	r0, sp
 357 00e6 FFF7FEFF 		bl	max
 358              	.LVL47:
 359 00ea 0446     		mov	r4, r0
 360              	.LVL48:
 361 00ec 2F4F     		ldr	r7, .L25+32
 362 00ee 3880     		strh	r0, [r7]	@ movhi
 130:main.c        ****         TX_DATA[1] = (min(datapin, NUMBER_OF_SENSE_PARAM, TX_DATA[0])); //Use min
 363              		.loc 1 130 0
 364 00f0 0246     		mov	r2, r0
 365 00f2 0821     		movs	r1, #8
 366 00f4 6846     		mov	r0, sp
 367 00f6 FFF7FEFF 		bl	min
 368              	.LVL49:
 369 00fa 0546     		mov	r5, r0
 370 00fc 7880     		strh	r0, [r7, #2]	@ movhi
 131:main.c        ****         TX_DATA[2] = (avg(datapin, NUMBER_OF_SENSE_PARAM, TX_DATA[0]) + RX_DATA_P1[2])/(NUM_PERIPH_
 371              		.loc 1 131 0
 372 00fe 2246     		mov	r2, r4
 373 0100 0821     		movs	r1, #8
 374 0102 6846     		mov	r0, sp
ARM GAS  C:\Users\UNIPRO~1\AppData\Local\Temp\ccAKWlaQ.s 			page 10


 375 0104 FFF7FEFF 		bl	avg
 376              	.LVL50:
 377 0108 B388     		ldrh	r3, [r6, #4]
 378 010a 1844     		add	r0, r0, r3
 379 010c 00EBD070 		add	r0, r0, r0, lsr #31
 380 0110 C0F34F03 		ubfx	r3, r0, #1, #16
 381 0114 BB80     		strh	r3, [r7, #4]	@ movhi
 132:main.c        ****         
 133:main.c        ****         TX_DATA8[0] = (int)(TX_DATA[0]/100);
 382              		.loc 1 133 0
 383 0116 2649     		ldr	r1, .L25+36
 384 0118 A1FB0402 		umull	r0, r2, r1, r4
 385 011c C2F34712 		ubfx	r2, r2, #5, #8
 386 0120 244C     		ldr	r4, .L25+40
 387 0122 2270     		strb	r2, [r4]
 134:main.c        ****         TX_DATA8[1] = (int)(TX_DATA[1]/100);
 388              		.loc 1 134 0
 389 0124 A1FB0505 		umull	r0, r5, r1, r5
 390 0128 6D09     		lsrs	r5, r5, #5
 391 012a 6570     		strb	r5, [r4, #1]
 135:main.c        ****         TX_DATA8[2] = (int)(TX_DATA[2]/100);
 392              		.loc 1 135 0
 393 012c A1FB0313 		umull	r1, r3, r1, r3
 394 0130 5B09     		lsrs	r3, r3, #5
 395 0132 A370     		strb	r3, [r4, #2]
 136:main.c        ****         
 137:main.c        ****         //Simulate transmission to Orion
 138:main.c        ****         sprintf(TransmitBuffer, "(ORION BMS) MAX: %d C\r\n", TX_DATA8[0]);
 396              		.loc 1 138 0
 397 0134 2049     		ldr	r1, .L25+44
 398 0136 04A8     		add	r0, sp, #16
 399 0138 FFF7FEFF 		bl	sprintf
 400              	.LVL51:
 139:main.c        ****         UART_1_PutString(TransmitBuffer);
 401              		.loc 1 139 0
 402 013c 04A8     		add	r0, sp, #16
 403 013e FFF7FEFF 		bl	UART_1_PutString
 404              	.LVL52:
 140:main.c        ****         CyDelay(100);
 405              		.loc 1 140 0
 406 0142 6420     		movs	r0, #100
 407 0144 FFF7FEFF 		bl	CyDelay
 408              	.LVL53:
 141:main.c        ****         sprintf(TransmitBuffer, "(ORION BMS) MIN: %d C\r\n", TX_DATA8[1]);
 409              		.loc 1 141 0
 410 0148 6278     		ldrb	r2, [r4, #1]	@ zero_extendqisi2
 411 014a 1C49     		ldr	r1, .L25+48
 412 014c 04A8     		add	r0, sp, #16
 413 014e FFF7FEFF 		bl	sprintf
 414              	.LVL54:
 142:main.c        ****         UART_1_PutString(TransmitBuffer);
 415              		.loc 1 142 0
 416 0152 04A8     		add	r0, sp, #16
 417 0154 FFF7FEFF 		bl	UART_1_PutString
 418              	.LVL55:
 143:main.c        ****         CyDelay(100);
 419              		.loc 1 143 0
ARM GAS  C:\Users\UNIPRO~1\AppData\Local\Temp\ccAKWlaQ.s 			page 11


 420 0158 6420     		movs	r0, #100
 421 015a FFF7FEFF 		bl	CyDelay
 422              	.LVL56:
 144:main.c        ****         sprintf(TransmitBuffer, "(ORION BMS) AVG: %d C\r\n\n", TX_DATA8[2]);
 423              		.loc 1 144 0
 424 015e A278     		ldrb	r2, [r4, #2]	@ zero_extendqisi2
 425 0160 1749     		ldr	r1, .L25+52
 426 0162 04A8     		add	r0, sp, #16
 427 0164 FFF7FEFF 		bl	sprintf
 428              	.LVL57:
 145:main.c        ****         UART_1_PutString(TransmitBuffer);
 429              		.loc 1 145 0
 430 0168 04A8     		add	r0, sp, #16
 431 016a FFF7FEFF 		bl	UART_1_PutString
 432              	.LVL58:
 146:main.c        ****         CyDelay(100);
 433              		.loc 1 146 0
 434 016e 6420     		movs	r0, #100
 435 0170 FFF7FEFF 		bl	CyDelay
 436              	.LVL59:
 147:main.c        ****         
 148:main.c        ****         CAN_1_SendMsg0();
 437              		.loc 1 148 0
 438 0174 FFF7FEFF 		bl	CAN_1_SendMsg0
 439              	.LVL60:
 149:main.c        ****         CyDelay(100);
 440              		.loc 1 149 0
 441 0178 6420     		movs	r0, #100
 442 017a FFF7FEFF 		bl	CyDelay
 443              	.LVL61:
 150:main.c        ****         CAN_1_SendMsg1();
 444              		.loc 1 150 0
 445 017e FFF7FEFF 		bl	CAN_1_SendMsg1
 446              	.LVL62:
 151:main.c        ****         CyDelay(100);
 447              		.loc 1 151 0
 448 0182 6420     		movs	r0, #100
 449 0184 FFF7FEFF 		bl	CyDelay
 450              	.LVL63:
 451              	.LBE2:
 152:main.c        ****     }
 452              		.loc 1 152 0
 453 0188 4AE7     		b	.L23
 454              	.L26:
 455 018a 00BF     		.align	2
 456              	.L25:
 457 018c 00000000 		.word	.LC0
 458 0190 10000000 		.word	.LC1
 459 0194 30000000 		.word	.LC2
 460 0198 3C000000 		.word	.LC3
 461 019c 00000000 		.word	RX_DATA_P1
 462 01a0 4C000000 		.word	.LC4
 463 01a4 68000000 		.word	.LC5
 464 01a8 84000000 		.word	.LC6
 465 01ac 00000000 		.word	TX_DATA
 466 01b0 1F85EB51 		.word	1374389535
 467 01b4 00000000 		.word	TX_DATA8
ARM GAS  C:\Users\UNIPRO~1\AppData\Local\Temp\ccAKWlaQ.s 			page 12


 468 01b8 A0000000 		.word	.LC7
 469 01bc B8000000 		.word	.LC8
 470 01c0 D0000000 		.word	.LC9
 471              		.cfi_endproc
 472              	.LFE67:
 473              		.size	main, .-main
 474              		.comm	TX_DATA8,3,4
 475              		.comm	TX_DATA,6,4
 476              		.comm	RX_DATA_P1,6,4
 477              		.section	.rodata.str1.4,"aMS",%progbits,1
 478              		.align	2
 479              	.LC0:
 480 0000 434F4D20 		.ascii	"COM Port Open\000"
 480      506F7274 
 480      204F7065 
 480      6E00
 481 000e 0000     		.space	2
 482              	.LC1:
 483 0010 23232323 		.ascii	"####### NEW SAMPLES #######\015\012\000"
 483      23232320 
 483      4E455720 
 483      53414D50 
 483      4C455320 
 484 002e 0000     		.space	2
 485              	.LC2:
 486 0030 50696E20 		.ascii	"Pin DC\015\012\000"
 486      44430D0A 
 486      00
 487 0039 000000   		.space	3
 488              	.LC3:
 489 003c 53616D70 		.ascii	"Sample: %d mV\015\012\000"
 489      6C653A20 
 489      2564206D 
 489      560D0A00 
 490              	.LC4:
 491 004c 0A504552 		.ascii	"\012PERIPHERAL 1 MAX: %d mV\015\012\000"
 491      49504845 
 491      52414C20 
 491      31204D41 
 491      583A2025 
 492 0067 00       		.space	1
 493              	.LC5:
 494 0068 50455249 		.ascii	"PERIPHERAL 1 MIN: %d mV\015\012\000"
 494      50484552 
 494      414C2031 
 494      204D494E 
 494      3A202564 
 495 0082 0000     		.space	2
 496              	.LC6:
 497 0084 50455249 		.ascii	"PERIPHERAL 1 AVG: %d mV\015\012\012\000"
 497      50484552 
 497      414C2031 
 497      20415647 
 497      3A202564 
 498 009f 00       		.space	1
 499              	.LC7:
 500 00a0 284F5249 		.ascii	"(ORION BMS) MAX: %d C\015\012\000"
ARM GAS  C:\Users\UNIPRO~1\AppData\Local\Temp\ccAKWlaQ.s 			page 13


 500      4F4E2042 
 500      4D532920 
 500      4D41583A 
 500      20256420 
 501              	.LC8:
 502 00b8 284F5249 		.ascii	"(ORION BMS) MIN: %d C\015\012\000"
 502      4F4E2042 
 502      4D532920 
 502      4D494E3A 
 502      20256420 
 503              	.LC9:
 504 00d0 284F5249 		.ascii	"(ORION BMS) AVG: %d C\015\012\012\000"
 504      4F4E2042 
 504      4D532920 
 504      4156473A 
 504      20256420 
 505              		.text
 506              	.Letext0:
 507              		.file 2 "c:\\program files (x86)\\cypress\\psoc creator\\4.4\\psoc creator\\import\\gnu\\arm\\5.4.
 508              		.file 3 "c:\\program files (x86)\\cypress\\psoc creator\\4.4\\psoc creator\\import\\gnu\\arm\\5.4.
 509              		.file 4 "Generated_Source\\PSoC5/cytypes.h"
 510              		.file 5 "Generated_Source\\PSoC5/core_cm3.h"
 511              		.file 6 "Generated_Source\\PSoC5/UART_1.h"
 512              		.file 7 "Generated_Source\\PSoC5/CyLib.h"
 513              		.file 8 "Generated_Source\\PSoC5/AMux_1.h"
 514              		.file 9 "Generated_Source\\PSoC5/ADC_DelSig_1.h"
 515              		.file 10 "c:\\program files (x86)\\cypress\\psoc creator\\4.4\\psoc creator\\import\\gnu\\arm\\5.4
 516              		.file 11 "Generated_Source\\PSoC5/CAN_1.h"